; Function Attrs: nounwind uwtable
define range(i32 -22, 1) i32 @CVodeSetMinStep(ptr noundef %0, double noundef %1) local_unnamed_addr #0 {
  %3 = icmp eq ptr %0, null
  br i1 %3, label %4, label %5

4:                                                ; preds = %2
  tail call void (ptr, i32, i32, ptr, ptr, ptr, ...) @cvProcessError(ptr noundef null, i32 noundef -21, i32 noundef 303, ptr noundef nonnull @__func__.CVodeSetMinStep, ptr noundef nonnull @.str, ptr noundef nonnull @.str.1) #7
  br label %20

5:                                                ; preds = %2
  %6 = fcmp olt double %1, 0.000000e+00
  br i1 %6, label %7, label %8

7:                                                ; preds = %5
  tail call void (ptr, i32, i32, ptr, ptr, ptr, ...) @cvProcessError(ptr noundef nonnull %0, i32 noundef -22, i32 noundef 311, ptr noundef nonnull @__func__.CVodeSetMinStep, ptr noundef nonnull @.str, ptr noundef nonnull @.str.7) #7
  br label %20

8:                                                ; preds = %5
  %9 = fcmp oeq double %1, 0.000000e+00
  br i1 %9, label %10, label %12

10:                                               ; preds = %8
  %11 = getelementptr inbounds nuw i8, ptr %0, i64 744
  store double 0.000000e+00, ptr %11, align 8
  br label %20

12:                                               ; preds = %8
  %13 = getelementptr inbounds nuw i8, ptr %0, i64 752
  %14 = load double, ptr %13, align 8
  %15 = fmul double %1, %14
  %16 = fcmp ogt double %15, 1.000000e+00
  br i1 %16, label %17, label %18

17:                                               ; preds = %12
  tail call void (ptr, i32, i32, ptr, ptr, ptr, ...) @cvProcessError(ptr noundef nonnull %0, i32 noundef -22, i32 noundef 325, ptr noundef nonnull @__func__.CVodeSetMinStep, ptr noundef nonnull @.str, ptr noundef nonnull @.str.8) #7
  br label %20

18:                                               ; preds = %12
  %19 = getelementptr inbounds nuw i8, ptr %0, i64 744
  store double %1, ptr %19, align 8
  br label %20

20:                                               ; preds = %18, %17, %10, %7, %4
  %.0 = phi i32 [ -21, %4 ], [ -22, %7 ], [ 0, %10 ], [ -22, %17 ], [ 0, %18 ]
  ret i32 %.0
}